; Function Attrs: nounwind uwtable
define range(i32 -13, 1) i32 @cvNlsInit(ptr noundef %0) local_unnamed_addr #0 {
  %2 = getelementptr inbounds nuw i8, ptr %0, i64 1016
  %3 = load ptr, ptr %2, align 8, !tbaa !43
  %.not = icmp eq ptr %3, null
  %4 = getelementptr inbounds nuw i8, ptr %0, i64 976
  %5 = load ptr, ptr %4, align 8, !tbaa !14
  %.cvNlsLSetup = select i1 %.not, ptr null, ptr @cvNlsLSetup
  %6 = tail call i32 @SUNNonlinSolSetLSetupFn(ptr noundef %5, ptr noundef %.cvNlsLSetup) #3
  %.not14 = icmp eq i32 %6, 0
  br i1 %.not14, label %8, label %7

7:                                                ; preds = %1
  tail call void (ptr, i32, i32, ptr, ptr, ptr, ...) @cvProcessError(ptr noundef nonnull %0, i32 noundef -22, i32 noundef 221, ptr noundef nonnull @__func__.cvNlsInit, ptr noundef nonnull @.str, ptr noundef nonnull @.str.9) #3
  br label %20

8:                                                ; preds = %1
  %9 = getelementptr inbounds nuw i8, ptr %0, i64 1024
  %10 = load ptr, ptr %9, align 8, !tbaa !44
  %.not15 = icmp eq ptr %10, null
  %11 = getelementptr inbounds nuw i8, ptr %0, i64 976
  %12 = load ptr, ptr %11, align 8, !tbaa !14
  %.cvNlsLSolve = select i1 %.not15, ptr null, ptr @cvNlsLSolve
  %13 = tail call i32 @SUNNonlinSolSetLSolveFn(ptr noundef %12, ptr noundef %.cvNlsLSolve) #3
  %.not16 = icmp eq i32 %13, 0
  br i1 %.not16, label %15, label %14

14:                                               ; preds = %8
  tail call void (ptr, i32, i32, ptr, ptr, ptr, ...) @cvProcessError(ptr noundef nonnull %0, i32 noundef -22, i32 noundef 235, ptr noundef nonnull @__func__.cvNlsInit, ptr noundef nonnull @.str, ptr noundef nonnull @.str.10) #3
  br label %20

15:                                               ; preds = %8
  %16 = getelementptr inbounds nuw i8, ptr %0, i64 976
  %17 = load ptr, ptr %16, align 8, !tbaa !14
  %18 = tail call i32 @SUNNonlinSolInitialize(ptr noundef %17) #3
  %.not17 = icmp eq i32 %18, 0
  br i1 %.not17, label %20, label %19

19:                                               ; preds = %15
  tail call void (ptr, i32, i32, ptr, ptr, ptr, ...) @cvProcessError(ptr noundef nonnull %0, i32 noundef -22, i32 noundef 245, ptr noundef nonnull @__func__.cvNlsInit, ptr noundef nonnull @.str, ptr noundef nonnull @.str.11) #3
  br label %20

20:                                               ; preds = %15, %19, %14, %7
  %.013 = phi i32 [ -13, %7 ], [ -13, %14 ], [ -13, %19 ], [ 0, %15 ]
  ret i32 %.013
}